target datalayout = "e-m:e-p270:32:32-p271:32:32-p272:64:64-i64:64-i128:128-f80:128-n8:16:32:64-S128"
target triple = "x86_64-unknown-linux-gnu"

%"class.icu_75::UObject" = type { ptr }
%"class.icu_75::SpoofImpl" = type <{ %"class.icu_75::UObject", %"class.icu_75::IcuCApiHelper", i32, ptr, ptr, ptr, i32, [4 x i8] }>
%"class.icu_75::IcuCApiHelper" = type { i32 }
%"class.icu_75::UnicodeSet" = type <{ %"class.icu_75::UnicodeFilter", ptr, i32, i32, i8, [7 x i8], ptr, ptr, i32, [4 x i8], ptr, i32, [4 x i8], ptr, ptr, [25 x i32], [4 x i8] }>
%"class.icu_75::UnicodeFilter" = type { %"class.icu_75::UnicodeFunctor", %"class.icu_75::UnicodeMatcher" }
%"class.icu_75::UnicodeFunctor" = type { %"class.icu_75::UObject" }
%"class.icu_75::UnicodeMatcher" = type { ptr }

; Function Attrs: mustprogress nounwind uwtable
define linkonce_odr noundef signext i8 @_ZNK6icu_7510UnicodeSet7isBogusEv(ptr noundef nonnull align 8 dereferenceable(200) %this) #1 comdat align 2 {
entry:
  %this.addr = alloca ptr, align 8
  store ptr %this, ptr %this.addr, align 8
  %this1 = load ptr, ptr %this.addr, align 8
  %fFlags = getelementptr inbounds %"class.icu_75::UnicodeSet", ptr %this1, i32 0, i32 4
  %0 = load i8, ptr %fFlags, align 8
  %conv = zext i8 %0 to i32
  %and = and i32 %conv, 1
  %conv2 = trunc i32 %and to i8
  ret i8 %conv2
}

; Function Attrs: mustprogress uwtable
define void @uspoof_setAllowedUnicodeSet_75(ptr noundef %sc, ptr noundef %chars, ptr noundef %status) #0 {
entry:
  %sc.addr = alloca ptr, align 8
  %chars.addr = alloca ptr, align 8
  %status.addr = alloca ptr, align 8
  %This = alloca ptr, align 8
  %clonedSet = alloca ptr, align 8
  store ptr %sc, ptr %sc.addr, align 8
  store ptr %chars, ptr %chars.addr, align 8
  store ptr %status, ptr %status.addr, align 8
  %0 = load ptr, ptr %sc.addr, align 8
  %1 = load ptr, ptr %status.addr, align 8
  %call = call noundef ptr @_ZN6icu_759SpoofImpl12validateThisEP13USpoofCheckerR10UErrorCode(ptr noundef %0, ptr noundef nonnull align 4 dereferenceable(4) %1)
  store ptr %call, ptr %This, align 8
  %2 = load ptr, ptr %This, align 8
  %cmp = icmp eq ptr %2, null
  br i1 %cmp, label %if.then, label %if.end

if.then:                                          ; preds = %entry
  br label %return

if.end:                                           ; preds = %entry
  %3 = load ptr, ptr %chars.addr, align 8
  %call1 = call noundef signext i8 @_ZNK6icu_7510UnicodeSet7isBogusEv(ptr noundef nonnull align 8 dereferenceable(200) %3)
  %tobool = icmp ne i8 %call1, 0
  br i1 %tobool, label %if.then2, label %if.end3

if.then2:                                         ; preds = %if.end
  %4 = load ptr, ptr %status.addr, align 8
  store i32 1, ptr %4, align 4
  br label %return

if.end3:                                          ; preds = %if.end
  %5 = load ptr, ptr %chars.addr, align 8
  %call4 = call noundef ptr @_ZNK6icu_7510UnicodeSet5cloneEv(ptr noundef nonnull align 8 dereferenceable(200) %5)
  store ptr %call4, ptr %clonedSet, align 8
  %6 = load ptr, ptr %clonedSet, align 8
  %cmp5 = icmp eq ptr %6, null
  br i1 %cmp5, label %if.then8, label %lor.lhs.false

lor.lhs.false:                                    ; preds = %if.end3
  %7 = load ptr, ptr %clonedSet, align 8
  %call6 = call noundef signext i8 @_ZNK6icu_7510UnicodeSet7isBogusEv(ptr noundef nonnull align 8 dereferenceable(200) %7)
  %tobool7 = icmp ne i8 %call6, 0
  br i1 %tobool7, label %if.then8, label %if.end9

if.then8:                                         ; preds = %lor.lhs.false, %if.end3
  %8 = load ptr, ptr %status.addr, align 8
  store i32 7, ptr %8, align 4
  br label %return

if.end9:                                          ; preds = %lor.lhs.false
  %9 = load ptr, ptr %clonedSet, align 8
  %call10 = call noundef ptr @_ZN6icu_7510UnicodeSet6freezeEv(ptr noundef nonnull align 8 dereferenceable(200) %9)
  %10 = load ptr, ptr %This, align 8
  %fAllowedCharsSet = getelementptr inbounds %"class.icu_75::SpoofImpl", ptr %10, i32 0, i32 4
  %11 = load ptr, ptr %fAllowedCharsSet, align 8
  %isnull = icmp eq ptr %11, null
  br i1 %isnull, label %delete.end, label %delete.notnull

delete.notnull:                                   ; preds = %if.end9
  call void @_ZN6icu_7510UnicodeSetD1Ev(ptr noundef nonnull align 8 dereferenceable(200) %11) #6
  call void @_ZN6icu_757UMemorydlEPv(ptr noundef %11) #6
  br label %delete.end

delete.end:                                       ; preds = %delete.notnull, %if.end9
  %12 = load ptr, ptr %clonedSet, align 8
  %13 = load ptr, ptr %This, align 8
  %fAllowedCharsSet11 = getelementptr inbounds %"class.icu_75::SpoofImpl", ptr %13, i32 0, i32 4
  store ptr %12, ptr %fAllowedCharsSet11, align 8
  %14 = load ptr, ptr %This, align 8
  %fChecks = getelementptr inbounds %"class.icu_75::SpoofImpl", ptr %14, i32 0, i32 2
  %15 = load i32, ptr %fChecks, align 4
  %or = or i32 %15, 64
  store i32 %or, ptr %fChecks, align 4
  br label %return

return:                                           ; preds = %delete.end, %if.then8, %if.then2, %if.then
  ret void
}