; Function Attrs: mustprogress uwtable
define void @uspoof_setAllowedUnicodeSet_75(ptr noundef %sc, ptr noundef %chars, ptr noundef nonnull %status) local_unnamed_addr #0 {
entry:
  %call = tail call noundef ptr @_ZN6icu_759SpoofImpl12validateThisEP13USpoofCheckerR10UErrorCode(ptr noundef %sc, ptr noundef nonnull align 4 dereferenceable(4) %status)
  %cmp = icmp eq ptr %call, null
  br i1 %cmp, label %return, label %if.end

if.end:                                           ; preds = %entry
  %fFlags.i = getelementptr inbounds i8, ptr %chars, i64 32
  %0 = load i8, ptr %fFlags.i, align 8
  %1 = and i8 %0, 1
  %tobool.not = icmp eq i8 %1, 0
  br i1 %tobool.not, label %if.end3, label %if.then2

if.then2:                                         ; preds = %if.end
  store i32 1, ptr %status, align 4
  br label %return

if.end3:                                          ; preds = %if.end
  %call4 = tail call noundef ptr @_ZNK6icu_7510UnicodeSet5cloneEv(ptr noundef nonnull align 8 dereferenceable(200) %chars)
  %cmp5 = icmp eq ptr %call4, null
  br i1 %cmp5, label %if.then8, label %lor.lhs.false

lor.lhs.false:                                    ; preds = %if.end3
  %fFlags.i10 = getelementptr inbounds i8, ptr %call4, i64 32
  %2 = load i8, ptr %fFlags.i10, align 8
  %3 = and i8 %2, 1
  %tobool7.not = icmp eq i8 %3, 0
  br i1 %tobool7.not, label %if.end9, label %if.then8

if.then8:                                         ; preds = %lor.lhs.false, %if.end3
  store i32 7, ptr %status, align 4
  br label %return

if.end9:                                          ; preds = %lor.lhs.false
  %call10 = tail call noundef ptr @_ZN6icu_7510UnicodeSet6freezeEv(ptr noundef nonnull align 8 dereferenceable(200) %call4)
  %fAllowedCharsSet = getelementptr inbounds i8, ptr %call, i64 24
  %4 = load ptr, ptr %fAllowedCharsSet, align 8
  %isnull = icmp eq ptr %4, null
  br i1 %isnull, label %delete.end, label %delete.notnull

delete.notnull:                                   ; preds = %if.end9
  tail call void @_ZN6icu_7510UnicodeSetD1Ev(ptr noundef nonnull align 8 dereferenceable(200) %4) #6
  tail call void @_ZN6icu_757UMemorydlEPv(ptr noundef nonnull %4) #6
  br label %delete.end

delete.end:                                       ; preds = %delete.notnull, %if.end9
  store ptr %call4, ptr %fAllowedCharsSet, align 8
  %fChecks = getelementptr inbounds i8, ptr %call, i64 12
  %5 = load i32, ptr %fChecks, align 4
  %or = or i32 %5, 64
  store i32 %or, ptr %fChecks, align 4
  br label %return

return:                                           ; preds = %entry, %delete.end, %if.then8, %if.then2
  ret void
}